EXPORTS
CryptAcquireContextA=_Z24CryptAcquireContextAStubPmPKcS1_mm@20
CryptAcquireContextW=_Z24CryptAcquireContextWStubPmPKwS1_mm@20
CryptCreateHash=_Z19CryptCreateHashStubmjmmPm@20
CryptDecrypt=_Z16CryptDecryptStubmmimPhPm@24
CryptDestroyHash=_Z20CryptDestroyHashStubm@4
CryptDestroyKey=_Z19CryptDestroyKeyStubm@4
CryptEncrypt=_Z16CryptEncryptStubmmimPhPmm@28
CryptGenRandom=_Z18CryptGenRandomStubmmPh@12
CryptGetHashParam=_Z21CryptGetHashParamStubmmPhPmm@20
CryptHashData=_Z17CryptHashDataStubmPKhmm@16
CryptImportKey=_Z18CryptImportKeyStubmPKhmmmPm@24
CryptReleaseContext=_Z23CryptReleaseContextStubmm@8
CryptSetKeyParam=_Z20CryptSetKeyParamStubmmPKhm@16
DeregisterEventSource=_Z25DeregisterEventSourceStubPv@4
RegCloseKey=_Z15RegCloseKeyStubP6HKEY__@4
RegCreateKeyExA=_Z18RegCreateKeyExStubP6HKEY__PKvmPcmmP20_SECURITY_ATTRIBUTESPS0_Pm@36
RegCreateKeyExW=_Z18RegCreateKeyExStubP6HKEY__PKvmPcmmP20_SECURITY_ATTRIBUTESPS0_Pm@36
RegisterEventSourceA=_Z24RegisterEventSourceAStubPKcS0_@8
RegOpenKeyA=_Z15RegOpenKeyAStubP6HKEY__PKcPS0_@12
RegOpenKeyExA=_Z16RegOpenKeyExStubP6HKEY__PKvmmPS0_@20
RegOpenKeyExW=_Z16RegOpenKeyExStubP6HKEY__PKvmmPS0_@20
RegQueryValueExA=_Z19RegQueryValueExStubP6HKEY__PKvPmS3_PhS3_@24
RegQueryValueExW=_Z19RegQueryValueExStubP6HKEY__PKvPmS3_PhS3_@24
RegSetValueExA=_Z17RegSetValueExStubP6HKEY__PKvmmPKhm@24
RegSetValueExW=_Z17RegSetValueExStubP6HKEY__PKvmmPKhm@24
ReportEventA=_Z16ReportEventAStubPvttmS_tmPPKcS_@36
