EXPORTS
accept=_Z10acceptStubjP8sockaddrPi@12
bind=_Z8bindStubjPK8sockaddri@12
closesocket=_Z15closesocketStubj@4
connect=_Z11connectStubjPK8sockaddri@12
gethostbyaddr=_Z17gethostbyaddrStubPKcii@12
gethostbyname=_Z17gethostbynameStubPKc@4
gethostname=_Z15gethostnameStubPci@8
getpeername=_Z15getpeernameStubjP8sockaddrPi@12
getservbyname=_Z17getservbynameStubPKcS0_@8
getsockname=_Z15getsocknameStubjP8sockaddrPi@12
getsockopt=_Z14getsockoptStubjiiPcPi@20
htons=_Z9htonsStubt@4
inet_addr=_Z13inet_addrStubPKc@4
inet_ntoa=_Z13inet_ntoaStub7in_addr@4
ioctlsocket=_Z15ioctlsocketStubjlPm@12
listen=_Z10listenStubji@8
ntohs=_Z9ntohsStubt@4
recv=_Z8recvStubjPcii@16
recvfrom=_Z12recvfromStubjPciiP8sockaddrPi@24
select=_Z10selectStubiP6fd_setS0_S0_P7timeval@20
send=_Z8sendStubjPKcii@16
sendto=_Z10sendtoStubjPKciiPK8sockaddri@24
setsockopt=_Z14setsockoptStubjiiPKci@20
socket=_Z10socketStubiii@12
WSAAsyncGetHostByName=_Z25WSAAsyncGetHostByNameStubP6HWND__jPKcPci@20
WSAAsyncGetServByName=_Z25WSAAsyncGetServByNameStubP6HWND__jPKcS2_Pci@24
WSAAsyncSelect=_Z18WSAAsyncSelectStubjP6HWND__jl@16
WSACancelAsyncRequest=_Z25WSACancelAsyncRequestStubPv@4
WSACleanup=_Z14WSACleanupStubv@0
WSAGetLastError=_Z19WSAGetLastErrorStubv@0
WSAStartup=_Z14WSAStartupStubtP7WSAData@8
