EXPORTS
CryptAcquireContextA=_Z24CryptAcquireContextAStubPyPKcS1_mm
CryptAcquireContextW=_Z24CryptAcquireContextWStubPyPKwS1_mm
CryptCreateHash=_Z19CryptCreateHashStubyjymPy
CryptDecrypt=_Z16CryptDecryptStubyyimPhPm
CryptDestroyHash=_Z20CryptDestroyHashStuby
CryptDestroyKey=_Z19CryptDestroyKeyStuby
CryptEncrypt=_Z16CryptEncryptStubyyimPhPmm
CryptExportKey=_Z18CryptExportKeyStubyymmPhPm
CryptGenKey=_Z15CryptGenKeyStubyjmPy
CryptGenRandom=_Z18CryptGenRandomStubymPh
CryptGetHashParam=_Z21CryptGetHashParamStubymPhPmm
CryptHashData=_Z17CryptHashDataStubyPKhmm
CryptImportKey=_Z18CryptImportKeyStubyPKhmymPy
CryptReleaseContext=_Z23CryptReleaseContextStubym
CryptSetKeyParam=_Z20CryptSetKeyParamStubymPKhm
DeregisterEventSource=_Z25DeregisterEventSourceStubPv
GetSidSubAuthority=_Z22GetSidSubAuthorityStubPvm
GetSidSubAuthorityCount=_Z27GetSidSubAuthorityCountStubPv
GetTokenInformation=_Z23GetTokenInformationStubPv24_TOKEN_INFORMATION_CLASSS_mPm
IsValidSid=_Z14IsValidSidStubPv
OpenProcessToken=_Z20OpenProcessTokenStubPvmPS_
RegCloseKey=_Z15RegCloseKeyStubP6HKEY__
RegCreateKeyA=_Z17RegCreateKeyAStubP6HKEY__PKcPS0_
RegCreateKeyExA=_Z19RegCreateKeyExAStubP6HKEY__PKcmPcmmP20_SECURITY_ATTRIBUTESPS0_Pm
RegisterEventSourceW=_Z24RegisterEventSourceWStubPKwS0_
RegOpenKeyA=_Z15RegOpenKeyAStubP6HKEY__PKcPS0_
RegOpenKeyExA=_Z16RegOpenKeyExStubP6HKEY__PvmmPS0_
RegOpenKeyExW=_Z16RegOpenKeyExStubP6HKEY__PvmmPS0_
RegQueryValueExA=_Z19RegQueryValueExStubP6HKEY__PvPmS2_PhS2_
RegQueryValueExW=_Z19RegQueryValueExStubP6HKEY__PvPmS2_PhS2_
RegSetValueExA=_Z18RegSetValueExAStubP6HKEY__PKcmmPKhm
ReportEventW=_Z16ReportEventWStubPvttmS_tmPPKwS_
